target datalayout = "e-m:e-p270:32:32-p271:32:32-p272:64:64-i64:64-i128:128-f80:128-n8:16:32:64-S128"
target triple = "x86_64-unknown-linux-gnu"

@.str.186 = private unnamed_addr constant [1 x i8] zeroinitializer, align 1
@.str.371 = private unnamed_addr constant [30 x i8] c"appendfilename can't be empty\00", align 1
@.str.372 = private unnamed_addr constant [48 x i8] c"appendfilename can't be a path, just a filename\00", align 1

; Function Attrs: nounwind uwtable
define internal i32 @isValidAOFfilename(ptr noundef %val, ptr noundef %err) #0 {
entry:
  %retval = alloca i32, align 4
  %val.addr = alloca ptr, align 8
  %err.addr = alloca ptr, align 8
  store ptr %val, ptr %val.addr, align 8
  store ptr %err, ptr %err.addr, align 8
  %0 = load ptr, ptr %val.addr, align 8
  %call = call i32 @strcmp(ptr noundef %0, ptr noundef @.str.186) #10
  %tobool = icmp ne i32 %call, 0
  br i1 %tobool, label %if.end, label %if.then

if.then:                                          ; preds = %entry
  %1 = load ptr, ptr %err.addr, align 8
  store ptr @.str.371, ptr %1, align 8
  store i32 0, ptr %retval, align 4
  br label %return

if.end:                                           ; preds = %entry
  %2 = load ptr, ptr %val.addr, align 8
  %call1 = call i32 @pathIsBaseName(ptr noundef %2)
  %tobool2 = icmp ne i32 %call1, 0
  br i1 %tobool2, label %if.end4, label %if.then3

if.then3:                                         ; preds = %if.end
  %3 = load ptr, ptr %err.addr, align 8
  store ptr @.str.372, ptr %3, align 8
  store i32 0, ptr %retval, align 4
  br label %return

if.end4:                                          ; preds = %if.end
  store i32 1, ptr %retval, align 4
  br label %return

return:                                           ; preds = %if.end4, %if.then3, %if.then
  %4 = load i32, ptr %retval, align 4
  ret i32 %4
}