; Function Attrs: nounwind uwtable
define internal noundef i32 @isValidAOFfilename(ptr noundef %val, ptr nocapture noundef writeonly %err) #2 {
entry:
  %strcmpload = load i8, ptr %val, align 1
  %tobool.not = icmp eq i8 %strcmpload, 0
  br i1 %tobool.not, label %return.sink.split, label %if.end

if.end:                                           ; preds = %entry
  %call1 = tail call i32 @pathIsBaseName(ptr noundef nonnull %val) #24
  %tobool2.not = icmp eq i32 %call1, 0
  br i1 %tobool2.not, label %return.sink.split, label %return

return.sink.split:                                ; preds = %if.end, %entry
  %.str.372.sink = phi ptr [ @.str.371, %entry ], [ @.str.372, %if.end ]
  store ptr %.str.372.sink, ptr %err, align 8
  br label %return

return:                                           ; preds = %return.sink.split, %if.end
  %retval.0 = phi i32 [ 1, %if.end ], [ 0, %return.sink.split ]
  ret i32 %retval.0
}